target datalayout = "e-m:e-p270:32:32-p271:32:32-p272:64:64-i64:64-i128:128-f80:128-n8:16:32:64-S128"
target triple = "x86_64-pc-linux-gnu"

%struct.redisObject = type { i32, i32, ptr }
%struct.client = type { i64, i64, ptr, i8, i8, i8, i8, i32, ptr, ptr, ptr, ptr, ptr, i64, i64, i32, ptr, i32, i32, ptr, i64, ptr, ptr, ptr, ptr, ptr, i32, i32, i64, ptr, i64, ptr, i64, i64, i64, i32, ptr, i64, i64, i32, i32, i32, i32, i64, i64, ptr, i64, i64, i64, i64, i64, i64, i64, i64, [41 x i8], i32, ptr, i32, i32, i64, %struct.multiState, %struct.blockingState, i64, ptr, ptr, ptr, ptr, ptr, ptr, ptr, ptr, ptr, ptr, ptr, ptr, ptr, ptr, i64, ptr, i64, i32, ptr, ptr, ptr, i64, %struct.listNode, i64, i64, i32, i64, ptr }
%struct.multiState = type { ptr, i32, i32, i32, i64, i32 }
%struct.blockingState = type { i32, i64, i32, ptr, i32, i32, i64, ptr, ptr, i64 }
%struct.listNode = type { ptr, ptr, ptr }

@.str.3 = private unnamed_addr constant [3 x i8] c"nx\00", align 1
@.str.4 = private unnamed_addr constant [3 x i8] c"xx\00", align 1
@.str.5 = private unnamed_addr constant [3 x i8] c"gt\00", align 1
@.str.6 = private unnamed_addr constant [3 x i8] c"lt\00", align 1
@.str.7 = private unnamed_addr constant [22 x i8] c"Unsupported option %s\00", align 1
@.str.8 = private unnamed_addr constant [64 x i8] c"NX and XX, GT or LT options at the same time are not compatible\00", align 1
@.str.9 = private unnamed_addr constant [54 x i8] c"GT and LT options at the same time are not compatible\00", align 1

; Function Attrs: nounwind uwtable
define dso_local i32 @parseExtendedExpireArgumentsOrReply(ptr noundef %0, ptr noundef %1) #0 {
  %3 = alloca i32, align 4
  %4 = alloca ptr, align 8
  %5 = alloca ptr, align 8
  %6 = alloca i32, align 4
  %7 = alloca i32, align 4
  %8 = alloca i32, align 4
  %9 = alloca i32, align 4
  %10 = alloca i32, align 4
  %11 = alloca ptr, align 8
  %12 = alloca i32, align 4
  store ptr %0, ptr %4, align 8, !tbaa !83
  store ptr %1, ptr %5, align 8, !tbaa !84
  call void @llvm.lifetime.start.p0(i64 4, ptr %6) #8
  store i32 0, ptr %6, align 4, !tbaa !21
  call void @llvm.lifetime.start.p0(i64 4, ptr %7) #8
  store i32 0, ptr %7, align 4, !tbaa !21
  call void @llvm.lifetime.start.p0(i64 4, ptr %8) #8
  store i32 0, ptr %8, align 4, !tbaa !21
  call void @llvm.lifetime.start.p0(i64 4, ptr %9) #8
  store i32 0, ptr %9, align 4, !tbaa !21
  call void @llvm.lifetime.start.p0(i64 4, ptr %10) #8
  store i32 3, ptr %10, align 4, !tbaa !21
  br label %13

13:                                               ; preds = %71, %2
  %14 = load i32, ptr %10, align 4, !tbaa !21
  %15 = load ptr, ptr %4, align 8, !tbaa !83
  %16 = getelementptr inbounds nuw %struct.client, ptr %15, i32 0, i32 15
  %17 = load i32, ptr %16, align 8, !tbaa !86
  %18 = icmp slt i32 %14, %17
  br i1 %18, label %19, label %72

19:                                               ; preds = %13
  call void @llvm.lifetime.start.p0(i64 8, ptr %11) #8
  %20 = load ptr, ptr %4, align 8, !tbaa !83
  %21 = getelementptr inbounds nuw %struct.client, ptr %20, i32 0, i32 16
  %22 = load ptr, ptr %21, align 8, !tbaa !95
  %23 = load i32, ptr %10, align 4, !tbaa !21
  %24 = sext i32 %23 to i64
  %25 = getelementptr inbounds ptr, ptr %22, i64 %24
  %26 = load ptr, ptr %25, align 8, !tbaa !16
  %27 = getelementptr inbounds nuw %struct.redisObject, ptr %26, i32 0, i32 2
  %28 = load ptr, ptr %27, align 8, !tbaa !79
  store ptr %28, ptr %11, align 8, !tbaa !14
  %29 = load ptr, ptr %11, align 8, !tbaa !14
  %30 = call i32 @strcasecmp(ptr noundef %29, ptr noundef @.str.3) #10
  %31 = icmp ne i32 %30, 0
  br i1 %31, label %36, label %32

32:                                               ; preds = %19
  %33 = load ptr, ptr %5, align 8, !tbaa !84
  %34 = load i32, ptr %33, align 4, !tbaa !21
  %35 = or i32 %34, 1
  store i32 %35, ptr %33, align 4, !tbaa !21
  store i32 1, ptr %6, align 4, !tbaa !21
  br label %66

36:                                               ; preds = %19
  %37 = load ptr, ptr %11, align 8, !tbaa !14
  %38 = call i32 @strcasecmp(ptr noundef %37, ptr noundef @.str.4) #10
  %39 = icmp ne i32 %38, 0
  br i1 %39, label %44, label %40

40:                                               ; preds = %36
  %41 = load ptr, ptr %5, align 8, !tbaa !84
  %42 = load i32, ptr %41, align 4, !tbaa !21
  %43 = or i32 %42, 2
  store i32 %43, ptr %41, align 4, !tbaa !21
  store i32 1, ptr %7, align 4, !tbaa !21
  br label %65

44:                                               ; preds = %36
  %45 = load ptr, ptr %11, align 8, !tbaa !14
  %46 = call i32 @strcasecmp(ptr noundef %45, ptr noundef @.str.5) #10
  %47 = icmp ne i32 %46, 0
  br i1 %47, label %52, label %48

48:                                               ; preds = %44
  %49 = load ptr, ptr %5, align 8, !tbaa !84
  %50 = load i32, ptr %49, align 4, !tbaa !21
  %51 = or i32 %50, 4
  store i32 %51, ptr %49, align 4, !tbaa !21
  store i32 1, ptr %8, align 4, !tbaa !21
  br label %64

52:                                               ; preds = %44
  %53 = load ptr, ptr %11, align 8, !tbaa !14
  %54 = call i32 @strcasecmp(ptr noundef %53, ptr noundef @.str.6) #10
  %55 = icmp ne i32 %54, 0
  br i1 %55, label %60, label %56

56:                                               ; preds = %52
  %57 = load ptr, ptr %5, align 8, !tbaa !84
  %58 = load i32, ptr %57, align 4, !tbaa !21
  %59 = or i32 %58, 8
  store i32 %59, ptr %57, align 4, !tbaa !21
  store i32 1, ptr %9, align 4, !tbaa !21
  br label %63

60:                                               ; preds = %52
  %61 = load ptr, ptr %4, align 8, !tbaa !83
  %62 = load ptr, ptr %11, align 8, !tbaa !14
  call void (ptr, ptr, ...) @addReplyErrorFormat(ptr noundef %61, ptr noundef @.str.7, ptr noundef %62)
  store i32 -1, ptr %3, align 4
  store i32 1, ptr %12, align 4
  br label %69

63:                                               ; preds = %56
  br label %64

64:                                               ; preds = %63, %48
  br label %65

65:                                               ; preds = %64, %40
  br label %66

66:                                               ; preds = %65, %32
  %67 = load i32, ptr %10, align 4, !tbaa !21
  %68 = add nsw i32 %67, 1
  store i32 %68, ptr %10, align 4, !tbaa !21
  store i32 0, ptr %12, align 4
  br label %69

69:                                               ; preds = %66, %60
  call void @llvm.lifetime.end.p0(i64 8, ptr %11) #8
  %70 = load i32, ptr %12, align 4
  switch i32 %70, label %101 [
    i32 0, label %71
  ]

71:                                               ; preds = %69
  br label %13, !llvm.loop !96

72:                                               ; preds = %13
  %73 = load i32, ptr %6, align 4, !tbaa !21
  %74 = icmp ne i32 %73, 0
  br i1 %74, label %75, label %78

75:                                               ; preds = %72
  %76 = load i32, ptr %7, align 4, !tbaa !21
  %77 = icmp ne i32 %76, 0
  br i1 %77, label %90, label %78

78:                                               ; preds = %75, %72
  %79 = load i32, ptr %6, align 4, !tbaa !21
  %80 = icmp ne i32 %79, 0
  br i1 %80, label %81, label %84

81:                                               ; preds = %78
  %82 = load i32, ptr %8, align 4, !tbaa !21
  %83 = icmp ne i32 %82, 0
  br i1 %83, label %90, label %84

84:                                               ; preds = %81, %78
  %85 = load i32, ptr %6, align 4, !tbaa !21
  %86 = icmp ne i32 %85, 0
  br i1 %86, label %87, label %92

87:                                               ; preds = %84
  %88 = load i32, ptr %9, align 4, !tbaa !21
  %89 = icmp ne i32 %88, 0
  br i1 %89, label %90, label %92

90:                                               ; preds = %87, %81, %75
  %91 = load ptr, ptr %4, align 8, !tbaa !83
  call void @addReplyError(ptr noundef %91, ptr noundef @.str.8)
  store i32 -1, ptr %3, align 4
  store i32 1, ptr %12, align 4
  br label %101

92:                                               ; preds = %87, %84
  %93 = load i32, ptr %8, align 4, !tbaa !21
  %94 = icmp ne i32 %93, 0
  br i1 %94, label %95, label %100

95:                                               ; preds = %92
  %96 = load i32, ptr %9, align 4, !tbaa !21
  %97 = icmp ne i32 %96, 0
  br i1 %97, label %98, label %100

98:                                               ; preds = %95
  %99 = load ptr, ptr %4, align 8, !tbaa !83
  call void @addReplyError(ptr noundef %99, ptr noundef @.str.9)
  store i32 -1, ptr %3, align 4
  store i32 1, ptr %12, align 4
  br label %101

100:                                              ; preds = %95, %92
  store i32 0, ptr %3, align 4
  store i32 1, ptr %12, align 4
  br label %101

101:                                              ; preds = %100, %98, %90, %69
  call void @llvm.lifetime.end.p0(i64 4, ptr %10) #8
  call void @llvm.lifetime.end.p0(i64 4, ptr %9) #8
  call void @llvm.lifetime.end.p0(i64 4, ptr %8) #8
  call void @llvm.lifetime.end.p0(i64 4, ptr %7) #8
  call void @llvm.lifetime.end.p0(i64 4, ptr %6) #8
  %102 = load i32, ptr %3, align 4
  ret i32 %102
}